; Function Attrs: mustprogress uwtable
define void @_ZN4pkpy12Literal0Expr5emit_EPNS_15CodeEmitContextE(ptr noundef nonnull readonly align 8 captures(none) dereferenceable(13) %0, ptr noundef readonly captures(none) %1) unnamed_addr #5 align 2 personality ptr @__gxx_personality_v0 {
  %3 = alloca %"class.std::__cxx11::basic_string", align 8
  %4 = alloca %"class.std::__cxx11::basic_string", align 8
  %5 = alloca %"class.std::__cxx11::basic_string", align 8
  %6 = alloca %"class.std::__cxx11::basic_string", align 8
  %7 = alloca %"class.std::allocator.59", align 1
  %8 = alloca %"class.std::__cxx11::basic_string", align 8
  %9 = getelementptr inbounds nuw i8, ptr %0, i64 12
  %10 = load i8, ptr %9, align 4
  switch i8 %10, label %14 [
    i8 73, label %36
    i8 79, label %11
    i8 80, label %12
    i8 53, label %13
  ]

11:                                               ; preds = %2
  br label %36

12:                                               ; preds = %2
  br label %36

13:                                               ; preds = %2
  br label %36

14:                                               ; preds = %2
  %15 = tail call ptr @__cxa_allocate_exception(i64 16) #32
  call void @_ZNSaIcEC1Ev(ptr noundef nonnull align 1 dereferenceable(1) %7) #32
  invoke void @_ZNSt7__cxx1112basic_stringIcSt11char_traitsIcESaIcEEC2IS3_EEPKcRKS3_(ptr noundef nonnull align 8 dereferenceable(32) %6, ptr noundef nonnull @.str.2, ptr noundef nonnull align 1 dereferenceable(1) %7)
          to label %16 unwind label %.thread

16:                                               ; preds = %14
  %17 = invoke noundef nonnull align 8 dereferenceable(32) ptr @_ZNSt7__cxx1112basic_stringIcSt11char_traitsIcESaIcEE6insertEmPKc(ptr noundef nonnull align 8 dereferenceable(32) %6, i64 noundef 0, ptr noundef nonnull @.str)
          to label %18 unwind label %24

18:                                               ; preds = %16
  call void @_ZNSt7__cxx1112basic_stringIcSt11char_traitsIcESaIcEEC1EOS4_(ptr noundef nonnull align 8 dereferenceable(32) %5, ptr noundef nonnull align 8 dereferenceable(32) %17) #32
  call void @_ZNSt7__cxx119to_stringEi(ptr dead_on_unwind nonnull writable sret(%"class.std::__cxx11::basic_string") align 8 %8, i32 noundef 259) #32
  invoke void @_ZStplIcSt11char_traitsIcESaIcEENSt7__cxx1112basic_stringIT_T0_T1_EEOS8_S9_(ptr dead_on_unwind nonnull writable sret(%"class.std::__cxx11::basic_string") align 8 %4, ptr noundef nonnull align 8 dereferenceable(32) %5, ptr noundef nonnull align 8 dereferenceable(32) %8)
          to label %19 unwind label %26

19:                                               ; preds = %18
  %20 = invoke noundef nonnull align 8 dereferenceable(32) ptr @_ZNSt7__cxx1112basic_stringIcSt11char_traitsIcESaIcEE6appendEPKc(ptr noundef nonnull align 8 dereferenceable(32) %4, ptr noundef nonnull @.str.3)
          to label %21 unwind label %28

21:                                               ; preds = %19
  call void @_ZNSt7__cxx1112basic_stringIcSt11char_traitsIcESaIcEEC1EOS4_(ptr noundef nonnull align 8 dereferenceable(32) %3, ptr noundef nonnull align 8 dereferenceable(32) %20) #32
  invoke void @_ZNSt13runtime_errorC1ERKNSt7__cxx1112basic_stringIcSt11char_traitsIcESaIcEEE(ptr noundef nonnull align 8 dereferenceable(16) %15, ptr noundef nonnull align 8 dereferenceable(32) %3)
          to label %22 unwind label %30

22:                                               ; preds = %21
  invoke void @__cxa_throw(ptr nonnull %15, ptr nonnull @_ZTISt13runtime_error, ptr nonnull @_ZNSt13runtime_errorD1Ev) #29
          to label %41 unwind label %30

.thread:                                          ; preds = %14
  %23 = landingpad { ptr, i32 }
          cleanup
  call void @_ZNSaIcED1Ev(ptr noundef nonnull align 1 dereferenceable(1) %7) #32
  br label %35

24:                                               ; preds = %16
  %25 = landingpad { ptr, i32 }
          cleanup
  br label %34

26:                                               ; preds = %18
  %27 = landingpad { ptr, i32 }
          cleanup
  br label %33

28:                                               ; preds = %19
  %29 = landingpad { ptr, i32 }
          cleanup
  br label %32

30:                                               ; preds = %22, %21
  %.0 = phi i1 [ false, %22 ], [ true, %21 ]
  %31 = landingpad { ptr, i32 }
          cleanup
  call void @_ZNSt7__cxx1112basic_stringIcSt11char_traitsIcESaIcEED1Ev(ptr noundef nonnull align 8 dereferenceable(32) %3) #32
  br label %32

32:                                               ; preds = %30, %28
  %.pn = phi { ptr, i32 } [ %31, %30 ], [ %29, %28 ]
  %.4 = phi i1 [ %.0, %30 ], [ true, %28 ]
  call void @_ZNSt7__cxx1112basic_stringIcSt11char_traitsIcESaIcEED1Ev(ptr noundef nonnull align 8 dereferenceable(32) %4) #32
  br label %33

33:                                               ; preds = %32, %26
  %.pn.pn = phi { ptr, i32 } [ %.pn, %32 ], [ %27, %26 ]
  %.3 = phi i1 [ %.4, %32 ], [ true, %26 ]
  call void @_ZNSt7__cxx1112basic_stringIcSt11char_traitsIcESaIcEED1Ev(ptr noundef nonnull align 8 dereferenceable(32) %8) #32
  call void @_ZNSt7__cxx1112basic_stringIcSt11char_traitsIcESaIcEED1Ev(ptr noundef nonnull align 8 dereferenceable(32) %5) #32
  br label %34

34:                                               ; preds = %24, %33
  %.pn.pn.pn = phi { ptr, i32 } [ %.pn.pn, %33 ], [ %25, %24 ]
  %.2 = phi i1 [ %.3, %33 ], [ true, %24 ]
  call void @_ZNSt7__cxx1112basic_stringIcSt11char_traitsIcESaIcEED1Ev(ptr noundef nonnull align 8 dereferenceable(32) %6) #32
  call void @_ZNSaIcED1Ev(ptr noundef nonnull align 1 dereferenceable(1) %7) #32
  br i1 %.2, label %35, label %40

35:                                               ; preds = %.thread, %34
  %.pn.pn.pn.pn22 = phi { ptr, i32 } [ %23, %.thread ], [ %.pn.pn.pn, %34 ]
  call void @__cxa_free_exception(ptr %15) #32
  br label %40

36:                                               ; preds = %2, %13, %12, %11
  %.sink = phi i8 [ 11, %13 ], [ 9, %12 ], [ 8, %11 ], [ 7, %2 ]
  %37 = getelementptr inbounds nuw i8, ptr %0, i64 8
  %38 = load i32, ptr %37, align 8
  %39 = tail call noundef i32 @_ZN4pkpy15CodeEmitContext5emit_ENS_6OpcodeEtib(ptr noundef nonnull align 8 dereferenceable(232) %1, i8 noundef zeroext %.sink, i16 noundef zeroext 0, i32 noundef %38, i1 noundef zeroext false)
  ret void

40:                                               ; preds = %34, %35
  %.pn.pn.pn.pn21 = phi { ptr, i32 } [ %.pn.pn.pn, %34 ], [ %.pn.pn.pn.pn22, %35 ]
  resume { ptr, i32 } %.pn.pn.pn.pn21

41:                                               ; preds = %22
  unreachable
}